; ModuleID = '30/1877.c'
source_filename = "30/1877.c"
target datalayout = "e-m:e-p270:32:32-p271:32:32-p272:64:64-i64:64-f80:128-n8:16:32:64-S128"
target triple = "x86_64-pc-linux-gnu"

@.str = private unnamed_addr constant [3 x i8] c"%d\00", align 1

; Function Attrs: noinline nounwind uwtable
define dso_local i32 @main() #0 {
  %1 = alloca i32, align 4
  %2 = alloca i32, align 4
  %3 = alloca i32, align 4
  %4 = alloca i32, align 4
  %5 = alloca i32, align 4
  %6 = alloca i32, align 4
  store i32 0, i32* %1, align 4
  store i32 0, i32* %6, align 4
  %7 = call i32 (i8*, ...) @__isoc99_scanf(i8* getelementptr inbounds ([3 x i8], [3 x i8]* @.str, i64 0, i64 0), i32* %2)
  store i32 1, i32* %3, align 4
  br label %8

8:                                                ; preds = %37, %0
  %9 = load i32, i32* %3, align 4
  %10 = load i32, i32* %2, align 4
  %11 = icmp sle i32 %9, %10
  br i1 %11, label %12, label %40

12:                                               ; preds = %8
  %13 = load i32, i32* %3, align 4
  %14 = srem i32 %13, 10
  store i32 %14, i32* %5, align 4
  %15 = load i32, i32* %3, align 4
  %16 = load i32, i32* %5, align 4
  %17 = sub nsw i32 %15, %16
  %18 = sdiv i32 %17, 10
  store i32 %18, i32* %4, align 4
  %19 = load i32, i32* %3, align 4
  %20 = srem i32 %19, 7
  %21 = icmp eq i32 %20, 0
  br i1 %21, label %30, label %22

22:                                               ; preds = %12
  %23 = load i32, i32* %3, align 4
  %24 = srem i32 %23, 10
  %25 = icmp eq i32 %24, 7
  br i1 %25, label %30, label %26

26:                                               ; preds = %22
  %27 = load i32, i32* %4, align 4
  %28 = srem i32 %27, 10
  %29 = icmp eq i32 %28, 7
  br i1 %29, label %30, label %31

30:                                               ; preds = %26, %22, %12
  br label %37

31:                                               ; preds = %26
  %32 = load i32, i32* %3, align 4
  %33 = load i32, i32* %3, align 4
  %34 = mul nsw i32 %32, %33
  %35 = load i32, i32* %6, align 4
  %36 = add nsw i32 %35, %34
  store i32 %36, i32* %6, align 4
  br label %37

37:                                               ; preds = %31, %30
  %38 = load i32, i32* %3, align 4
  %39 = add nsw i32 %38, 1
  store i32 %39, i32* %3, align 4
  br label %8

40:                                               ; preds = %8
  %41 = load i32, i32* %6, align 4
  %42 = call i32 (i8*, ...) @printf(i8* getelementptr inbounds ([3 x i8], [3 x i8]* @.str, i64 0, i64 0), i32 %41)
  ret i32 0
}

declare dso_local i32 @__isoc99_scanf(i8*, ...) #1

declare dso_local i32 @printf(i8*, ...) #1


!llvm.module.flags = !{!0}
!llvm.ident = !{!1}

!0 = !{i32 1, !"wchar_size", i32 4}
!1 = !{!"clang version 10.0.0-4ubuntu1 "}
